target datalayout = "e-m:e-p270:32:32-p271:32:32-p272:64:64-i64:64-i128:128-f80:128-n8:16:32:64-S128"
target triple = "x86_64-pc-linux-gnu"

%"class.zmq::signaler_t" = type { i32, i32, i32 }
%struct.pollfd = type { i32, i16, i16 }

@stderr = external global ptr, align 8
@.str = private unnamed_addr constant [12 x i8] c"%s (%s:%d)\0A\00", align 1
@.str.1 = private unnamed_addr constant [108 x i8] c"generated/home/dtcxzyw/WorkSpace/Projects/compilers/llvm-opt-benchmark/bench/libzmq/libzmq/src/signaler.cpp\00", align 1
@.str.2 = private unnamed_addr constant [30 x i8] c"Assertion failed: %s (%s:%d)\0A\00", align 1
@.str.3 = private unnamed_addr constant [8 x i8] c"rc == 1\00", align 1
@.str.4 = private unnamed_addr constant [21 x i8] c"pfd.revents & POLLIN\00", align 1

; Function Attrs: mustprogress uwtable
define noundef i32 @_ZNK3zmq10signaler_t4waitEi(ptr noundef nonnull align 4 dereferenceable(12) %0, i32 noundef %1) #0 align 2 {
  %3 = alloca i32, align 4
  %4 = alloca ptr, align 8
  %5 = alloca i32, align 4
  %6 = alloca %struct.pollfd, align 4
  %7 = alloca i32, align 4
  %8 = alloca ptr, align 8
  %9 = alloca i32, align 4
  store ptr %0, ptr %4, align 8, !tbaa !3
  store i32 %1, ptr %5, align 4, !tbaa !13
  %10 = load ptr, ptr %4, align 8
  %11 = getelementptr inbounds nuw %"class.zmq::signaler_t", ptr %10, i32 0, i32 2
  %12 = load i32, ptr %11, align 4, !tbaa !12
  %13 = call i32 @getpid() #9
  %14 = icmp ne i32 %12, %13
  %15 = zext i1 %14 to i64
  %16 = call i64 @llvm.expect.i64(i64 %15, i64 0)
  %17 = icmp ne i64 %16, 0
  br i1 %17, label %18, label %20

18:                                               ; preds = %2
  %19 = call ptr @__errno_location() #10
  store i32 4, ptr %19, align 4, !tbaa !13
  store i32 -1, ptr %3, align 4
  br label %107

20:                                               ; preds = %2
  call void @llvm.lifetime.start.p0(i64 8, ptr %6) #9
  %21 = getelementptr inbounds nuw %"class.zmq::signaler_t", ptr %10, i32 0, i32 1
  %22 = load i32, ptr %21, align 4, !tbaa !11
  %23 = getelementptr inbounds nuw %struct.pollfd, ptr %6, i32 0, i32 0
  store i32 %22, ptr %23, align 4, !tbaa !22
  %24 = getelementptr inbounds nuw %struct.pollfd, ptr %6, i32 0, i32 1
  store i16 1, ptr %24, align 4, !tbaa !25
  call void @llvm.lifetime.start.p0(i64 4, ptr %7) #9
  %25 = load i32, ptr %5, align 4, !tbaa !13
  %26 = call i32 @poll(ptr noundef %6, i64 noundef 1, i32 noundef %25)
  store i32 %26, ptr %7, align 4, !tbaa !13
  %27 = load i32, ptr %7, align 4, !tbaa !13
  %28 = icmp slt i32 %27, 0
  %29 = zext i1 %28 to i64
  %30 = call i64 @llvm.expect.i64(i64 %29, i64 0)
  %31 = icmp ne i64 %30, 0
  br i1 %31, label %32, label %54

32:                                               ; preds = %20
  br label %33

33:                                               ; preds = %32
  %34 = call ptr @__errno_location() #10
  %35 = load i32, ptr %34, align 4, !tbaa !13
  %36 = icmp eq i32 %35, 4
  %37 = xor i1 %36, true
  %38 = zext i1 %37 to i64
  %39 = call i64 @llvm.expect.i64(i64 %38, i64 0)
  %40 = icmp ne i64 %39, 0
  br i1 %40, label %41, label %51

41:                                               ; preds = %33
  call void @llvm.lifetime.start.p0(i64 8, ptr %8) #9
  %42 = call ptr @__errno_location() #10
  %43 = load i32, ptr %42, align 4, !tbaa !13
  %44 = call ptr @strerror(i32 noundef %43) #9
  store ptr %44, ptr %8, align 8, !tbaa !14
  %45 = load ptr, ptr @stderr, align 8, !tbaa !16
  %46 = load ptr, ptr %8, align 8, !tbaa !14
  %47 = call i32 (ptr, ptr, ...) @fprintf(ptr noundef %45, ptr noundef @.str, ptr noundef %46, ptr noundef @.str.1, i32 noundef 221) #9
  %48 = load ptr, ptr @stderr, align 8, !tbaa !16
  %49 = call i32 @fflush(ptr noundef %48)
  %50 = load ptr, ptr %8, align 8, !tbaa !14
  call void @_ZN3zmq9zmq_abortEPKc(ptr noundef %50)
  call void @llvm.lifetime.end.p0(i64 8, ptr %8) #9
  br label %51

51:                                               ; preds = %41, %33
  br label %52

52:                                               ; preds = %51
  br label %53

53:                                               ; preds = %52
  store i32 -1, ptr %3, align 4
  store i32 1, ptr %9, align 4
  br label %106

54:                                               ; preds = %20
  %55 = load i32, ptr %7, align 4, !tbaa !13
  %56 = icmp eq i32 %55, 0
  %57 = zext i1 %56 to i64
  %58 = call i64 @llvm.expect.i64(i64 %57, i64 0)
  %59 = icmp ne i64 %58, 0
  br i1 %59, label %60, label %62

60:                                               ; preds = %54
  %61 = call ptr @__errno_location() #10
  store i32 11, ptr %61, align 4, !tbaa !13
  store i32 -1, ptr %3, align 4
  store i32 1, ptr %9, align 4
  br label %106

62:                                               ; preds = %54
  %63 = getelementptr inbounds nuw %"class.zmq::signaler_t", ptr %10, i32 0, i32 2
  %64 = load i32, ptr %63, align 4, !tbaa !12
  %65 = call i32 @getpid() #9
  %66 = icmp ne i32 %64, %65
  %67 = zext i1 %66 to i64
  %68 = call i64 @llvm.expect.i64(i64 %67, i64 0)
  %69 = icmp ne i64 %68, 0
  br i1 %69, label %70, label %72

70:                                               ; preds = %62
  %71 = call ptr @__errno_location() #10
  store i32 4, ptr %71, align 4, !tbaa !13
  store i32 -1, ptr %3, align 4
  store i32 1, ptr %9, align 4
  br label %106

72:                                               ; preds = %62
  br label %73

73:                                               ; preds = %72
  %74 = load i32, ptr %7, align 4, !tbaa !13
  %75 = icmp eq i32 %74, 1
  %76 = xor i1 %75, true
  %77 = zext i1 %76 to i64
  %78 = call i64 @llvm.expect.i64(i64 %77, i64 0)
  %79 = icmp ne i64 %78, 0
  br i1 %79, label %80, label %85

80:                                               ; preds = %73
  %81 = load ptr, ptr @stderr, align 8, !tbaa !16
  %82 = call i32 (ptr, ptr, ...) @fprintf(ptr noundef %81, ptr noundef @.str.2, ptr noundef @.str.3, ptr noundef @.str.1, i32 noundef 237) #9
  %83 = load ptr, ptr @stderr, align 8, !tbaa !16
  %84 = call i32 @fflush(ptr noundef %83)
  call void @_ZN3zmq9zmq_abortEPKc(ptr noundef @.str.3)
  br label %85

85:                                               ; preds = %80, %73
  br label %86

86:                                               ; preds = %85
  br label %87

87:                                               ; preds = %86
  br label %88

88:                                               ; preds = %87
  %89 = getelementptr inbounds nuw %struct.pollfd, ptr %6, i32 0, i32 2
  %90 = load i16, ptr %89, align 2, !tbaa !26
  %91 = sext i16 %90 to i32
  %92 = and i32 %91, 1
  %93 = icmp ne i32 %92, 0
  %94 = xor i1 %93, true
  %95 = zext i1 %94 to i64
  %96 = call i64 @llvm.expect.i64(i64 %95, i64 0)
  %97 = icmp ne i64 %96, 0
  br i1 %97, label %98, label %103

98:                                               ; preds = %88
  %99 = load ptr, ptr @stderr, align 8, !tbaa !16
  %100 = call i32 (ptr, ptr, ...) @fprintf(ptr noundef %99, ptr noundef @.str.2, ptr noundef @.str.4, ptr noundef @.str.1, i32 noundef 238) #9
  %101 = load ptr, ptr @stderr, align 8, !tbaa !16
  %102 = call i32 @fflush(ptr noundef %101)
  call void @_ZN3zmq9zmq_abortEPKc(ptr noundef @.str.4)
  br label %103

103:                                              ; preds = %98, %88
  br label %104

104:                                              ; preds = %103
  br label %105

105:                                              ; preds = %104
  store i32 0, ptr %3, align 4
  store i32 1, ptr %9, align 4
  br label %106

106:                                              ; preds = %105, %70, %60, %53
  call void @llvm.lifetime.end.p0(i64 4, ptr %7) #9
  call void @llvm.lifetime.end.p0(i64 8, ptr %6) #9
  br label %107

107:                                              ; preds = %106, %18
  %108 = load i32, ptr %3, align 4
  ret i32 %108
}