; Function Attrs: mustprogress uwtable
define noundef range(i32 -1, 1) i32 @_ZNK3zmq10signaler_t4waitEi(ptr noundef nonnull readonly align 4 captures(none) dereferenceable(12) %0, i32 noundef %1) local_unnamed_addr #0 align 2 {
  %3 = alloca %struct.pollfd, align 4
  %4 = getelementptr inbounds nuw i8, ptr %0, i64 8
  %5 = load i32, ptr %4, align 4, !tbaa !9
  %6 = tail call i32 @getpid() #11
  %.not = icmp eq i32 %5, %6
  br i1 %.not, label %9, label %7, !prof !17

7:                                                ; preds = %2
  %8 = tail call ptr @__errno_location() #12
  store i32 4, ptr %8, align 4, !tbaa !10
  br label %49

9:                                                ; preds = %2
  call void @llvm.lifetime.start.p0(i64 8, ptr nonnull %3) #11
  %10 = getelementptr inbounds nuw i8, ptr %0, i64 4
  %11 = load i32, ptr %10, align 4, !tbaa !8
  store i32 %11, ptr %3, align 4, !tbaa !20
  %12 = getelementptr inbounds nuw i8, ptr %3, i64 4
  store i16 1, ptr %12, align 4, !tbaa !23
  %13 = call i32 @poll(ptr noundef nonnull %3, i64 noundef 1, i32 noundef %1)
  %14 = icmp slt i32 %13, 0
  br i1 %14, label %15, label %24, !prof !24

15:                                               ; preds = %9
  %16 = tail call ptr @__errno_location() #12
  %17 = load i32, ptr %16, align 4, !tbaa !10
  %.not11 = icmp eq i32 %17, 4
  br i1 %.not11, label %48, label %18, !prof !17

18:                                               ; preds = %15
  %19 = call ptr @strerror(i32 noundef %17) #11
  %20 = load ptr, ptr @stderr, align 8, !tbaa !14
  %21 = call i32 (ptr, ptr, ...) @fprintf(ptr noundef %20, ptr noundef nonnull @.str, ptr noundef %19, ptr noundef nonnull @.str.1, i32 noundef 221) #13
  %22 = load ptr, ptr @stderr, align 8, !tbaa !14
  %23 = call i32 @fflush(ptr noundef %22)
  call void @_ZN3zmq9zmq_abortEPKc(ptr noundef %19)
  br label %48

24:                                               ; preds = %9
  %25 = icmp eq i32 %13, 0
  br i1 %25, label %26, label %28, !prof !24

26:                                               ; preds = %24
  %27 = tail call ptr @__errno_location() #12
  store i32 11, ptr %27, align 4, !tbaa !10
  br label %48

28:                                               ; preds = %24
  %29 = load i32, ptr %4, align 4, !tbaa !9
  %30 = call i32 @getpid() #11
  %.not8 = icmp eq i32 %29, %30
  br i1 %.not8, label %33, label %31, !prof !17

31:                                               ; preds = %28
  %32 = tail call ptr @__errno_location() #12
  store i32 4, ptr %32, align 4, !tbaa !10
  br label %48

33:                                               ; preds = %28
  %.not9 = icmp eq i32 %13, 1
  br i1 %.not9, label %39, label %34, !prof !17

34:                                               ; preds = %33
  %35 = load ptr, ptr @stderr, align 8, !tbaa !14
  %36 = call i32 (ptr, ptr, ...) @fprintf(ptr noundef %35, ptr noundef nonnull @.str.2, ptr noundef nonnull @.str.3, ptr noundef nonnull @.str.1, i32 noundef 237) #13
  %37 = load ptr, ptr @stderr, align 8, !tbaa !14
  %38 = call i32 @fflush(ptr noundef %37)
  call void @_ZN3zmq9zmq_abortEPKc(ptr noundef nonnull @.str.3)
  br label %39

39:                                               ; preds = %33, %34
  %40 = getelementptr inbounds nuw i8, ptr %3, i64 6
  %41 = load i16, ptr %40, align 2, !tbaa !25
  %42 = and i16 %41, 1
  %.not10 = icmp eq i16 %42, 0
  br i1 %.not10, label %43, label %48, !prof !24

43:                                               ; preds = %39
  %44 = load ptr, ptr @stderr, align 8, !tbaa !14
  %45 = call i32 (ptr, ptr, ...) @fprintf(ptr noundef %44, ptr noundef nonnull @.str.2, ptr noundef nonnull @.str.4, ptr noundef nonnull @.str.1, i32 noundef 238) #13
  %46 = load ptr, ptr @stderr, align 8, !tbaa !14
  %47 = call i32 @fflush(ptr noundef %46)
  call void @_ZN3zmq9zmq_abortEPKc(ptr noundef nonnull @.str.4)
  br label %48

48:                                               ; preds = %39, %43, %15, %18, %31, %26
  %.1 = phi i32 [ -1, %26 ], [ -1, %31 ], [ -1, %18 ], [ -1, %15 ], [ 0, %43 ], [ 0, %39 ]
  call void @llvm.lifetime.end.p0(i64 8, ptr nonnull %3) #11
  br label %49

49:                                               ; preds = %48, %7
  %.0 = phi i32 [ -1, %7 ], [ %.1, %48 ]
  ret i32 %.0
}